target datalayout = "e-m:e-p270:32:32-p271:32:32-p272:64:64-i64:64-i128:128-f80:128-n8:16:32:64-S128"
target triple = "x86_64-pc-linux-gnu"

%struct.jpeg_decompress_struct = type { ptr, ptr, ptr, ptr, i32, i32, ptr, i32, i32, i32, i32, i32, i32, i32, double, i32, i32, i32, i32, i32, i32, i32, i32, i32, i32, i32, i32, i32, i32, i32, i32, i32, i32, ptr, i32, i32, i32, i32, i32, ptr, [4 x ptr], [4 x ptr], [4 x ptr], i32, ptr, i32, i32, [16 x i8], [16 x i8], [16 x i8], i32, i32, i8, i8, i8, i16, i16, i32, i8, i32, ptr, i32, i32, i32, i32, ptr, i32, [4 x ptr], i32, i32, i32, [10 x i32], i32, i32, i32, i32, i32, ptr, ptr, ptr, ptr, ptr, ptr, ptr, ptr, ptr, ptr, ptr }
%struct.jpeg_error_mgr = type { ptr, ptr, ptr, ptr, ptr, i32, %union.anon, i32, i64, ptr, i32, ptr, i32, i32 }
%union.anon = type { [8 x i32], [48 x i8] }
%struct.jpeg_lossless_decompressor = type { %struct.jpeg_inverse_dct, [10 x ptr], ptr }
%struct.jpeg_inverse_dct = type { ptr, [10 x ptr], [10 x ptr] }

; Function Attrs: nounwind uwtable
define internal void @start_pass_lossless(ptr noundef %0) #0 {
  %2 = alloca ptr, align 8
  %3 = alloca ptr, align 8
  %4 = alloca i32, align 4
  store ptr %0, ptr %2, align 8, !tbaa !3
  call void @llvm.lifetime.start.p0(i64 8, ptr %3) #2
  %5 = load ptr, ptr %2, align 8, !tbaa !3
  %6 = getelementptr inbounds nuw %struct.jpeg_decompress_struct, ptr %5, i32 0, i32 84
  %7 = load ptr, ptr %6, align 8, !tbaa !42
  store ptr %7, ptr %3, align 8, !tbaa !41
  call void @llvm.lifetime.start.p0(i64 4, ptr %4) #2
  %8 = load ptr, ptr %2, align 8, !tbaa !3
  %9 = getelementptr inbounds nuw %struct.jpeg_decompress_struct, ptr %8, i32 0, i32 72
  %10 = load i32, ptr %9, align 4, !tbaa !46
  %11 = icmp slt i32 %10, 1
  br i1 %11, label %40, label %12

12:                                               ; preds = %1
  %13 = load ptr, ptr %2, align 8, !tbaa !3
  %14 = getelementptr inbounds nuw %struct.jpeg_decompress_struct, ptr %13, i32 0, i32 72
  %15 = load i32, ptr %14, align 4, !tbaa !46
  %16 = icmp sgt i32 %15, 7
  br i1 %16, label %40, label %17

17:                                               ; preds = %12
  %18 = load ptr, ptr %2, align 8, !tbaa !3
  %19 = getelementptr inbounds nuw %struct.jpeg_decompress_struct, ptr %18, i32 0, i32 73
  %20 = load i32, ptr %19, align 8, !tbaa !47
  %21 = icmp ne i32 %20, 0
  br i1 %21, label %40, label %22

22:                                               ; preds = %17
  %23 = load ptr, ptr %2, align 8, !tbaa !3
  %24 = getelementptr inbounds nuw %struct.jpeg_decompress_struct, ptr %23, i32 0, i32 74
  %25 = load i32, ptr %24, align 4, !tbaa !48
  %26 = icmp ne i32 %25, 0
  br i1 %26, label %40, label %27

27:                                               ; preds = %22
  %28 = load ptr, ptr %2, align 8, !tbaa !3
  %29 = getelementptr inbounds nuw %struct.jpeg_decompress_struct, ptr %28, i32 0, i32 75
  %30 = load i32, ptr %29, align 8, !tbaa !49
  %31 = icmp slt i32 %30, 0
  br i1 %31, label %40, label %32

32:                                               ; preds = %27
  %33 = load ptr, ptr %2, align 8, !tbaa !3
  %34 = getelementptr inbounds nuw %struct.jpeg_decompress_struct, ptr %33, i32 0, i32 75
  %35 = load i32, ptr %34, align 8, !tbaa !49
  %36 = load ptr, ptr %2, align 8, !tbaa !3
  %37 = getelementptr inbounds nuw %struct.jpeg_decompress_struct, ptr %36, i32 0, i32 43
  %38 = load i32, ptr %37, align 8, !tbaa !8
  %39 = icmp sge i32 %35, %38
  br i1 %39, label %40, label %83

40:                                               ; preds = %32, %27, %22, %17, %12, %1
  %41 = load ptr, ptr %2, align 8, !tbaa !3
  %42 = getelementptr inbounds nuw %struct.jpeg_decompress_struct, ptr %41, i32 0, i32 0
  %43 = load ptr, ptr %42, align 8, !tbaa !32
  %44 = getelementptr inbounds nuw %struct.jpeg_error_mgr, ptr %43, i32 0, i32 5
  store i32 16, ptr %44, align 8, !tbaa !33
  %45 = load ptr, ptr %2, align 8, !tbaa !3
  %46 = getelementptr inbounds nuw %struct.jpeg_decompress_struct, ptr %45, i32 0, i32 72
  %47 = load i32, ptr %46, align 4, !tbaa !46
  %48 = load ptr, ptr %2, align 8, !tbaa !3
  %49 = getelementptr inbounds nuw %struct.jpeg_decompress_struct, ptr %48, i32 0, i32 0
  %50 = load ptr, ptr %49, align 8, !tbaa !32
  %51 = getelementptr inbounds nuw %struct.jpeg_error_mgr, ptr %50, i32 0, i32 6
  %52 = getelementptr inbounds [8 x i32], ptr %51, i64 0, i64 0
  store i32 %47, ptr %52, align 4, !tbaa !36
  %53 = load ptr, ptr %2, align 8, !tbaa !3
  %54 = getelementptr inbounds nuw %struct.jpeg_decompress_struct, ptr %53, i32 0, i32 73
  %55 = load i32, ptr %54, align 8, !tbaa !47
  %56 = load ptr, ptr %2, align 8, !tbaa !3
  %57 = getelementptr inbounds nuw %struct.jpeg_decompress_struct, ptr %56, i32 0, i32 0
  %58 = load ptr, ptr %57, align 8, !tbaa !32
  %59 = getelementptr inbounds nuw %struct.jpeg_error_mgr, ptr %58, i32 0, i32 6
  %60 = getelementptr inbounds [8 x i32], ptr %59, i64 0, i64 1
  store i32 %55, ptr %60, align 4, !tbaa !36
  %61 = load ptr, ptr %2, align 8, !tbaa !3
  %62 = getelementptr inbounds nuw %struct.jpeg_decompress_struct, ptr %61, i32 0, i32 74
  %63 = load i32, ptr %62, align 4, !tbaa !48
  %64 = load ptr, ptr %2, align 8, !tbaa !3
  %65 = getelementptr inbounds nuw %struct.jpeg_decompress_struct, ptr %64, i32 0, i32 0
  %66 = load ptr, ptr %65, align 8, !tbaa !32
  %67 = getelementptr inbounds nuw %struct.jpeg_error_mgr, ptr %66, i32 0, i32 6
  %68 = getelementptr inbounds [8 x i32], ptr %67, i64 0, i64 2
  store i32 %63, ptr %68, align 4, !tbaa !36
  %69 = load ptr, ptr %2, align 8, !tbaa !3
  %70 = getelementptr inbounds nuw %struct.jpeg_decompress_struct, ptr %69, i32 0, i32 75
  %71 = load i32, ptr %70, align 8, !tbaa !49
  %72 = load ptr, ptr %2, align 8, !tbaa !3
  %73 = getelementptr inbounds nuw %struct.jpeg_decompress_struct, ptr %72, i32 0, i32 0
  %74 = load ptr, ptr %73, align 8, !tbaa !32
  %75 = getelementptr inbounds nuw %struct.jpeg_error_mgr, ptr %74, i32 0, i32 6
  %76 = getelementptr inbounds [8 x i32], ptr %75, i64 0, i64 3
  store i32 %71, ptr %76, align 4, !tbaa !36
  %77 = load ptr, ptr %2, align 8, !tbaa !3
  %78 = getelementptr inbounds nuw %struct.jpeg_decompress_struct, ptr %77, i32 0, i32 0
  %79 = load ptr, ptr %78, align 8, !tbaa !32
  %80 = getelementptr inbounds nuw %struct.jpeg_error_mgr, ptr %79, i32 0, i32 0
  %81 = load ptr, ptr %80, align 8, !tbaa !37
  %82 = load ptr, ptr %2, align 8, !tbaa !3
  call void %81(ptr noundef %82)
  br label %83

83:                                               ; preds = %40, %32
  store i32 0, ptr %4, align 4, !tbaa !50
  br label %84

84:                                               ; preds = %96, %83
  %85 = load i32, ptr %4, align 4, !tbaa !50
  %86 = load ptr, ptr %2, align 8, !tbaa !3
  %87 = getelementptr inbounds nuw %struct.jpeg_decompress_struct, ptr %86, i32 0, i32 9
  %88 = load i32, ptr %87, align 8, !tbaa !51
  %89 = icmp slt i32 %85, %88
  br i1 %89, label %90, label %99

90:                                               ; preds = %84
  %91 = load ptr, ptr %3, align 8, !tbaa !41
  %92 = getelementptr inbounds nuw %struct.jpeg_lossless_decompressor, ptr %91, i32 0, i32 1
  %93 = load i32, ptr %4, align 4, !tbaa !50
  %94 = sext i32 %93 to i64
  %95 = getelementptr inbounds [10 x ptr], ptr %92, i64 0, i64 %94
  store ptr @jpeg_undifference_first_row, ptr %95, align 8, !tbaa !41
  br label %96

96:                                               ; preds = %90
  %97 = load i32, ptr %4, align 4, !tbaa !50
  %98 = add nsw i32 %97, 1
  store i32 %98, ptr %4, align 4, !tbaa !50
  br label %84, !llvm.loop !52

99:                                               ; preds = %84
  %100 = load ptr, ptr %2, align 8, !tbaa !3
  %101 = getelementptr inbounds nuw %struct.jpeg_decompress_struct, ptr %100, i32 0, i32 75
  %102 = load i32, ptr %101, align 8, !tbaa !49
  %103 = icmp ne i32 %102, 0
  br i1 %103, label %104, label %107

104:                                              ; preds = %99
  %105 = load ptr, ptr %3, align 8, !tbaa !41
  %106 = getelementptr inbounds nuw %struct.jpeg_lossless_decompressor, ptr %105, i32 0, i32 2
  store ptr @simple_upscale, ptr %106, align 8, !tbaa !54
  br label %110

107:                                              ; preds = %99
  %108 = load ptr, ptr %3, align 8, !tbaa !41
  %109 = getelementptr inbounds nuw %struct.jpeg_lossless_decompressor, ptr %108, i32 0, i32 2
  store ptr @noscale, ptr %109, align 8, !tbaa !54
  br label %110

110:                                              ; preds = %107, %104
  call void @llvm.lifetime.end.p0(i64 4, ptr %4) #2
  call void @llvm.lifetime.end.p0(i64 8, ptr %3) #2
  ret void
}