; Function Attrs: nounwind uwtable
define internal void @start_pass_lossless(ptr noundef %0) #0 {
  %2 = getelementptr inbounds nuw i8, ptr %0, i64 600
  %3 = load ptr, ptr %2, align 8, !tbaa !39
  %4 = getelementptr inbounds nuw i8, ptr %0, i64 524
  %5 = load i32, ptr %4, align 4, !tbaa !43
  %6 = add i32 %5, -8
  %or.cond = icmp ult i32 %6, -7
  br i1 %or.cond, label %20, label %7

7:                                                ; preds = %1
  %8 = getelementptr inbounds nuw i8, ptr %0, i64 528
  %9 = load i32, ptr %8, align 8, !tbaa !44
  %.not = icmp eq i32 %9, 0
  br i1 %.not, label %10, label %20

10:                                               ; preds = %7
  %11 = getelementptr inbounds nuw i8, ptr %0, i64 532
  %12 = load i32, ptr %11, align 4, !tbaa !45
  %.not28 = icmp eq i32 %12, 0
  br i1 %.not28, label %13, label %20

13:                                               ; preds = %10
  %14 = getelementptr inbounds nuw i8, ptr %0, i64 536
  %15 = load i32, ptr %14, align 8, !tbaa !46
  %16 = icmp slt i32 %15, 0
  br i1 %16, label %20, label %17

17:                                               ; preds = %13
  %18 = getelementptr inbounds nuw i8, ptr %0, i64 296
  %19 = load i32, ptr %18, align 8, !tbaa !3
  %.not29 = icmp slt i32 %15, %19
  br i1 %.not29, label %38, label %20

20:                                               ; preds = %17, %13, %10, %7, %1
  %21 = load ptr, ptr %0, align 8, !tbaa !30
  %22 = getelementptr inbounds nuw i8, ptr %21, i64 40
  store i32 16, ptr %22, align 8, !tbaa !31
  %23 = getelementptr inbounds nuw i8, ptr %21, i64 44
  store i32 %5, ptr %23, align 4, !tbaa !34
  %24 = getelementptr inbounds nuw i8, ptr %0, i64 528
  %25 = load i32, ptr %24, align 8, !tbaa !44
  %26 = load ptr, ptr %0, align 8, !tbaa !30
  %27 = getelementptr inbounds nuw i8, ptr %26, i64 48
  store i32 %25, ptr %27, align 4, !tbaa !34
  %28 = getelementptr inbounds nuw i8, ptr %0, i64 532
  %29 = load i32, ptr %28, align 4, !tbaa !45
  %30 = load ptr, ptr %0, align 8, !tbaa !30
  %31 = getelementptr inbounds nuw i8, ptr %30, i64 52
  store i32 %29, ptr %31, align 4, !tbaa !34
  %32 = getelementptr inbounds nuw i8, ptr %0, i64 536
  %33 = load i32, ptr %32, align 8, !tbaa !46
  %34 = load ptr, ptr %0, align 8, !tbaa !30
  %35 = getelementptr inbounds nuw i8, ptr %34, i64 56
  store i32 %33, ptr %35, align 4, !tbaa !34
  %36 = load ptr, ptr %0, align 8, !tbaa !30
  %37 = load ptr, ptr %36, align 8, !tbaa !35
  tail call void %37(ptr noundef nonnull %0) #3
  br label %38

38:                                               ; preds = %20, %17
  %39 = getelementptr inbounds nuw i8, ptr %0, i64 56
  %40 = load i32, ptr %39, align 8, !tbaa !47
  %41 = icmp sgt i32 %40, 0
  br i1 %41, label %.lr.ph, label %._crit_edge

.lr.ph:                                           ; preds = %38
  %42 = getelementptr inbounds nuw i8, ptr %3, i64 168
  %wide.trip.count = zext nneg i32 %40 to i64
  br label %43

43:                                               ; preds = %.lr.ph, %43
  %indvars.iv = phi i64 [ 0, %.lr.ph ], [ %indvars.iv.next, %43 ]
  %44 = getelementptr inbounds nuw [10 x ptr], ptr %42, i64 0, i64 %indvars.iv
  store ptr @jpeg_undifference_first_row, ptr %44, align 8, !tbaa !48
  %indvars.iv.next = add nuw nsw i64 %indvars.iv, 1
  %exitcond.not = icmp eq i64 %indvars.iv.next, %wide.trip.count
  br i1 %exitcond.not, label %._crit_edge, label %43, !llvm.loop !49

._crit_edge:                                      ; preds = %43, %38
  %45 = getelementptr inbounds nuw i8, ptr %0, i64 536
  %46 = load i32, ptr %45, align 8, !tbaa !46
  %.not30 = icmp eq i32 %46, 0
  %spec.select = select i1 %.not30, ptr @noscale, ptr @simple_upscale
  %47 = getelementptr inbounds nuw i8, ptr %3, i64 248
  store ptr %spec.select, ptr %47, align 8, !tbaa !51
  ret void
}